target datalayout = "e-m:e-p270:32:32-p271:32:32-p272:64:64-i64:64-i128:128-f80:128-n8:16:32:64-S128"
target triple = "x86_64-pc-linux-gnu"

%struct.AVFilterContext = type { ptr, ptr, ptr, ptr, ptr, i32, ptr, ptr, i32, ptr, ptr, i32, i32, ptr, ptr, ptr, ptr, i32, ptr, i32, i32 }
%struct.ShuffleFramesContext = type { ptr, ptr, ptr, ptr, ptr, i32, i32 }

; Function Attrs: cold nounwind optsize uwtable
define internal void @uninit(ptr noundef %0) #0 {
  %2 = alloca ptr, align 8
  %3 = alloca ptr, align 8
  store ptr %0, ptr %2, align 8, !tbaa !4
  call void @llvm.lifetime.start.p0(i64 8, ptr %3) #5
  %4 = load ptr, ptr %2, align 8, !tbaa !4
  %5 = getelementptr inbounds nuw %struct.AVFilterContext, ptr %4, i32 0, i32 9
  %6 = load ptr, ptr %5, align 8, !tbaa !9
  store ptr %6, ptr %3, align 8, !tbaa !22
  br label %7

7:                                                ; preds = %12, %1
  %8 = load ptr, ptr %3, align 8, !tbaa !22
  %9 = getelementptr inbounds nuw %struct.ShuffleFramesContext, ptr %8, i32 0, i32 5
  %10 = load i32, ptr %9, align 8, !tbaa !39
  %11 = icmp sgt i32 %10, 0
  br i1 %11, label %12, label %25

12:                                               ; preds = %7
  %13 = load ptr, ptr %3, align 8, !tbaa !22
  %14 = getelementptr inbounds nuw %struct.ShuffleFramesContext, ptr %13, i32 0, i32 5
  %15 = load i32, ptr %14, align 8, !tbaa !39
  %16 = add nsw i32 %15, -1
  store i32 %16, ptr %14, align 8, !tbaa !39
  %17 = load ptr, ptr %3, align 8, !tbaa !22
  %18 = getelementptr inbounds nuw %struct.ShuffleFramesContext, ptr %17, i32 0, i32 2
  %19 = load ptr, ptr %18, align 8, !tbaa !34
  %20 = load ptr, ptr %3, align 8, !tbaa !22
  %21 = getelementptr inbounds nuw %struct.ShuffleFramesContext, ptr %20, i32 0, i32 5
  %22 = load i32, ptr %21, align 8, !tbaa !39
  %23 = sext i32 %22 to i64
  %24 = getelementptr inbounds ptr, ptr %19, i64 %23
  call void @av_frame_free(ptr noundef %24)
  br label %7, !llvm.loop !40

25:                                               ; preds = %7
  %26 = load ptr, ptr %3, align 8, !tbaa !22
  %27 = getelementptr inbounds nuw %struct.ShuffleFramesContext, ptr %26, i32 0, i32 2
  call void @av_freep(ptr noundef %27)
  %28 = load ptr, ptr %3, align 8, !tbaa !22
  %29 = getelementptr inbounds nuw %struct.ShuffleFramesContext, ptr %28, i32 0, i32 3
  call void @av_freep(ptr noundef %29)
  %30 = load ptr, ptr %3, align 8, !tbaa !22
  %31 = getelementptr inbounds nuw %struct.ShuffleFramesContext, ptr %30, i32 0, i32 4
  call void @av_freep(ptr noundef %31)
  call void @llvm.lifetime.end.p0(i64 8, ptr %3) #5
  ret void
}