; Function Attrs: cold nounwind optsize uwtable
define internal void @uninit(ptr noundef readonly captures(none) %0) #0 {
  %2 = getelementptr inbounds nuw i8, ptr %0, i64 72
  %3 = load ptr, ptr %2, align 8, !tbaa !4
  %4 = getelementptr inbounds nuw i8, ptr %3, i64 40
  %5 = load i32, ptr %4, align 8, !tbaa !35
  %6 = icmp sgt i32 %5, 0
  br i1 %6, label %.lr.ph, label %._crit_edge

.lr.ph:                                           ; preds = %1
  %7 = getelementptr inbounds nuw i8, ptr %3, i64 16
  br label %8

8:                                                ; preds = %.lr.ph, %8
  %9 = phi i32 [ %5, %.lr.ph ], [ %14, %8 ]
  %10 = add nsw i32 %9, -1
  store i32 %10, ptr %4, align 8, !tbaa !35
  %11 = load ptr, ptr %7, align 8, !tbaa !29
  %12 = zext nneg i32 %10 to i64
  %13 = getelementptr inbounds nuw ptr, ptr %11, i64 %12
  tail call void @av_frame_free(ptr noundef %13) #5
  %14 = load i32, ptr %4, align 8, !tbaa !35
  %15 = icmp sgt i32 %14, 0
  br i1 %15, label %8, label %._crit_edge, !llvm.loop !36

._crit_edge:                                      ; preds = %8, %1
  %16 = getelementptr inbounds nuw i8, ptr %3, i64 16
  tail call void @av_freep(ptr noundef nonnull %16) #5
  %17 = getelementptr inbounds nuw i8, ptr %3, i64 24
  tail call void @av_freep(ptr noundef nonnull %17) #5
  %18 = getelementptr inbounds nuw i8, ptr %3, i64 32
  tail call void @av_freep(ptr noundef nonnull %18) #5
  ret void
}